target datalayout = "e-m:e-p270:32:32-p271:32:32-p272:64:64-i64:64-i128:128-f80:128-n8:16:32:64-S128"
target triple = "x86_64-pc-linux-gnu"

%struct.VLCElem = type { %union.anon.1 }
%union.anon.1 = type { %struct.anon }
%struct.anon = type { i16, i16 }
%struct.VLC = type { i32, ptr, i32, i32 }
%struct.GetBitContext = type { ptr, ptr, i32, i32, i32 }

; Function Attrs: inlinehint nounwind willreturn memory(none) uwtable
define internal i32 @zero_extend(i32 noundef %0, i32 noundef %1) #9 {
  %3 = alloca i32, align 4
  %4 = alloca i32, align 4
  store i32 %0, ptr %3, align 4, !tbaa !36
  store i32 %1, ptr %4, align 4, !tbaa !36
  %5 = load i32, ptr %3, align 4, !tbaa !36
  %6 = load i32, ptr %4, align 4, !tbaa !36
  %7 = zext i32 %6 to i64
  %8 = sub i64 32, %7
  %9 = trunc i64 %8 to i32
  %10 = shl i32 %5, %9
  %11 = load i32, ptr %4, align 4, !tbaa !36
  %12 = zext i32 %11 to i64
  %13 = sub i64 32, %12
  %14 = trunc i64 %13 to i32
  %15 = lshr i32 %10, %14
  ret i32 %15
}

; Function Attrs: inlinehint nounwind uwtable
define internal i32 @get_bits_count(ptr noundef %0) #10 {
  %2 = alloca ptr, align 8
  store ptr %0, ptr %2, align 8, !tbaa !96
  %3 = load ptr, ptr %2, align 8, !tbaa !96
  %4 = getelementptr inbounds nuw %struct.GetBitContext, ptr %3, i32 0, i32 2
  %5 = load i32, ptr %4, align 8, !tbaa !119
  ret i32 %5
}

; Function Attrs: alwaysinline nounwind uwtable
define internal i32 @get_bitsz(ptr noundef %0, i32 noundef %1) #4 {
  %3 = alloca ptr, align 8
  %4 = alloca i32, align 4
  store ptr %0, ptr %3, align 8, !tbaa !96
  store i32 %1, ptr %4, align 4, !tbaa !36
  %5 = load i32, ptr %4, align 4, !tbaa !36
  %6 = icmp ne i32 %5, 0
  br i1 %6, label %7, label %11

7:                                                ; preds = %2
  %8 = load ptr, ptr %3, align 8, !tbaa !96
  %9 = load i32, ptr %4, align 4, !tbaa !36
  %10 = call i32 @get_bits(ptr noundef %8, i32 noundef %9)
  br label %12

11:                                               ; preds = %2
  br label %12

12:                                               ; preds = %11, %7
  %13 = phi i32 [ %10, %7 ], [ 0, %11 ]
  ret i32 %13
}

; Function Attrs: inlinehint nounwind uwtable
define internal i32 @get_bits(ptr noundef %0, i32 noundef %1) #10 {
  %3 = alloca ptr, align 8
  %4 = alloca i32, align 4
  %5 = alloca i32, align 4
  %6 = alloca i32, align 4
  %7 = alloca i32, align 4
  %8 = alloca i32, align 4
  store ptr %0, ptr %3, align 8, !tbaa !96
  store i32 %1, ptr %4, align 4, !tbaa !36
  call void @llvm.lifetime.start.p0(i64 4, ptr %5) #12
  call void @llvm.lifetime.start.p0(i64 4, ptr %6) #12
  %9 = load ptr, ptr %3, align 8, !tbaa !96
  %10 = getelementptr inbounds nuw %struct.GetBitContext, ptr %9, i32 0, i32 2
  %11 = load i32, ptr %10, align 8, !tbaa !119
  store i32 %11, ptr %6, align 4, !tbaa !36
  call void @llvm.lifetime.start.p0(i64 4, ptr %7) #12
  call void @llvm.lifetime.start.p0(i64 4, ptr %8) #12
  %12 = load ptr, ptr %3, align 8, !tbaa !96
  %13 = getelementptr inbounds nuw %struct.GetBitContext, ptr %12, i32 0, i32 4
  %14 = load i32, ptr %13, align 8, !tbaa !117
  store i32 %14, ptr %8, align 4, !tbaa !36
  %15 = load ptr, ptr %3, align 8, !tbaa !96
  %16 = getelementptr inbounds nuw %struct.GetBitContext, ptr %15, i32 0, i32 0
  %17 = load ptr, ptr %16, align 8, !tbaa !114
  %18 = load i32, ptr %6, align 4, !tbaa !36
  %19 = lshr i32 %18, 3
  %20 = zext i32 %19 to i64
  %21 = getelementptr inbounds nuw i8, ptr %17, i64 %20
  %22 = load i32, ptr %21, align 1, !tbaa !43
  %23 = load i32, ptr %6, align 4, !tbaa !36
  %24 = and i32 %23, 7
  %25 = lshr i32 %22, %24
  store i32 %25, ptr %7, align 4, !tbaa !36
  %26 = load i32, ptr %7, align 4, !tbaa !36
  %27 = load i32, ptr %4, align 4, !tbaa !36
  %28 = call i32 @zero_extend(i32 noundef %26, i32 noundef %27) #13
  store i32 %28, ptr %5, align 4, !tbaa !36
  %29 = load i32, ptr %8, align 4, !tbaa !36
  %30 = load i32, ptr %6, align 4, !tbaa !36
  %31 = load i32, ptr %4, align 4, !tbaa !36
  %32 = add i32 %30, %31
  %33 = icmp ugt i32 %29, %32
  br i1 %33, label %34, label %38

34:                                               ; preds = %2
  %35 = load i32, ptr %6, align 4, !tbaa !36
  %36 = load i32, ptr %4, align 4, !tbaa !36
  %37 = add i32 %35, %36
  br label %40

38:                                               ; preds = %2
  %39 = load i32, ptr %8, align 4, !tbaa !36
  br label %40

40:                                               ; preds = %38, %34
  %41 = phi i32 [ %37, %34 ], [ %39, %38 ]
  store i32 %41, ptr %6, align 4, !tbaa !36
  %42 = load i32, ptr %6, align 4, !tbaa !36
  %43 = load ptr, ptr %3, align 8, !tbaa !96
  %44 = getelementptr inbounds nuw %struct.GetBitContext, ptr %43, i32 0, i32 2
  store i32 %42, ptr %44, align 8, !tbaa !119
  %45 = load i32, ptr %5, align 4, !tbaa !36
  call void @llvm.lifetime.end.p0(i64 4, ptr %8) #12
  call void @llvm.lifetime.end.p0(i64 4, ptr %7) #12
  call void @llvm.lifetime.end.p0(i64 4, ptr %6) #12
  call void @llvm.lifetime.end.p0(i64 4, ptr %5) #12
  ret i32 %45
}

; Function Attrs: alwaysinline nounwind uwtable
define internal i32 @get_vlc2(ptr noundef %0, ptr noundef %1, i32 noundef %2, i32 noundef %3) #4 {
  %5 = alloca ptr, align 8
  %6 = alloca ptr, align 8
  %7 = alloca i32, align 4
  %8 = alloca i32, align 4
  %9 = alloca i32, align 4
  %10 = alloca i32, align 4
  %11 = alloca i32, align 4
  %12 = alloca i32, align 4
  %13 = alloca i32, align 4
  %14 = alloca i32, align 4
  %15 = alloca i32, align 4
  store ptr %0, ptr %5, align 8, !tbaa !96
  store ptr %1, ptr %6, align 8, !tbaa !144
  store i32 %2, ptr %7, align 4, !tbaa !36
  store i32 %3, ptr %8, align 4, !tbaa !36
  call void @llvm.lifetime.start.p0(i64 4, ptr %9) #12
  call void @llvm.lifetime.start.p0(i64 4, ptr %10) #12
  %16 = load ptr, ptr %5, align 8, !tbaa !96
  %17 = getelementptr inbounds nuw %struct.GetBitContext, ptr %16, i32 0, i32 2
  %18 = load i32, ptr %17, align 8, !tbaa !119
  store i32 %18, ptr %10, align 4, !tbaa !36
  call void @llvm.lifetime.start.p0(i64 4, ptr %11) #12
  call void @llvm.lifetime.start.p0(i64 4, ptr %12) #12
  %19 = load ptr, ptr %5, align 8, !tbaa !96
  %20 = getelementptr inbounds nuw %struct.GetBitContext, ptr %19, i32 0, i32 4
  %21 = load i32, ptr %20, align 8, !tbaa !117
  store i32 %21, ptr %12, align 4, !tbaa !36
  %22 = load ptr, ptr %5, align 8, !tbaa !96
  %23 = getelementptr inbounds nuw %struct.GetBitContext, ptr %22, i32 0, i32 0
  %24 = load ptr, ptr %23, align 8, !tbaa !114
  %25 = load i32, ptr %10, align 4, !tbaa !36
  %26 = lshr i32 %25, 3
  %27 = zext i32 %26 to i64
  %28 = getelementptr inbounds nuw i8, ptr %24, i64 %27
  %29 = load i32, ptr %28, align 1, !tbaa !43
  %30 = load i32, ptr %10, align 4, !tbaa !36
  %31 = and i32 %30, 7
  %32 = lshr i32 %29, %31
  store i32 %32, ptr %11, align 4, !tbaa !36
  br label %33

33:                                               ; preds = %4
  call void @llvm.lifetime.start.p0(i64 4, ptr %13) #12
  call void @llvm.lifetime.start.p0(i64 4, ptr %14) #12
  call void @llvm.lifetime.start.p0(i64 4, ptr %15) #12
  %34 = load i32, ptr %11, align 4, !tbaa !36
  %35 = load i32, ptr %7, align 4, !tbaa !36
  %36 = call i32 @zero_extend(i32 noundef %34, i32 noundef %35) #13
  store i32 %36, ptr %15, align 4, !tbaa !36
  %37 = load ptr, ptr %6, align 8, !tbaa !144
  %38 = load i32, ptr %15, align 4, !tbaa !36
  %39 = zext i32 %38 to i64
  %40 = getelementptr inbounds nuw %struct.VLCElem, ptr %37, i64 %39
  %41 = getelementptr inbounds nuw %struct.VLCElem, ptr %40, i32 0, i32 0
  %42 = getelementptr inbounds nuw %struct.anon, ptr %41, i32 0, i32 0
  %43 = load i16, ptr %42, align 2, !tbaa !43
  %44 = sext i16 %43 to i32
  store i32 %44, ptr %9, align 4, !tbaa !36
  %45 = load ptr, ptr %6, align 8, !tbaa !144
  %46 = load i32, ptr %15, align 4, !tbaa !36
  %47 = zext i32 %46 to i64
  %48 = getelementptr inbounds nuw %struct.VLCElem, ptr %45, i64 %47
  %49 = getelementptr inbounds nuw %struct.VLCElem, ptr %48, i32 0, i32 0
  %50 = getelementptr inbounds nuw %struct.anon, ptr %49, i32 0, i32 1
  %51 = load i16, ptr %50, align 2, !tbaa !43
  %52 = sext i16 %51 to i32
  store i32 %52, ptr %13, align 4, !tbaa !36
  %53 = load i32, ptr %8, align 4, !tbaa !36
  %54 = icmp sgt i32 %53, 1
  br i1 %54, label %55, label %160

55:                                               ; preds = %33
  %56 = load i32, ptr %13, align 4, !tbaa !36
  %57 = icmp slt i32 %56, 0
  br i1 %57, label %58, label %160

58:                                               ; preds = %55
  %59 = load i32, ptr %12, align 4, !tbaa !36
  %60 = load i32, ptr %10, align 4, !tbaa !36
  %61 = load i32, ptr %7, align 4, !tbaa !36
  %62 = add i32 %60, %61
  %63 = icmp ugt i32 %59, %62
  br i1 %63, label %64, label %68

64:                                               ; preds = %58
  %65 = load i32, ptr %10, align 4, !tbaa !36
  %66 = load i32, ptr %7, align 4, !tbaa !36
  %67 = add i32 %65, %66
  br label %70

68:                                               ; preds = %58
  %69 = load i32, ptr %12, align 4, !tbaa !36
  br label %70

70:                                               ; preds = %68, %64
  %71 = phi i32 [ %67, %64 ], [ %69, %68 ]
  store i32 %71, ptr %10, align 4, !tbaa !36
  %72 = load ptr, ptr %5, align 8, !tbaa !96
  %73 = getelementptr inbounds nuw %struct.GetBitContext, ptr %72, i32 0, i32 0
  %74 = load ptr, ptr %73, align 8, !tbaa !114
  %75 = load i32, ptr %10, align 4, !tbaa !36
  %76 = lshr i32 %75, 3
  %77 = zext i32 %76 to i64
  %78 = getelementptr inbounds nuw i8, ptr %74, i64 %77
  %79 = load i32, ptr %78, align 1, !tbaa !43
  %80 = load i32, ptr %10, align 4, !tbaa !36
  %81 = and i32 %80, 7
  %82 = lshr i32 %79, %81
  store i32 %82, ptr %11, align 4, !tbaa !36
  %83 = load i32, ptr %13, align 4, !tbaa !36
  %84 = sub nsw i32 0, %83
  store i32 %84, ptr %14, align 4, !tbaa !36
  %85 = load i32, ptr %11, align 4, !tbaa !36
  %86 = load i32, ptr %14, align 4, !tbaa !36
  %87 = call i32 @zero_extend(i32 noundef %85, i32 noundef %86) #13
  %88 = load i32, ptr %9, align 4, !tbaa !36
  %89 = add i32 %87, %88
  store i32 %89, ptr %15, align 4, !tbaa !36
  %90 = load ptr, ptr %6, align 8, !tbaa !144
  %91 = load i32, ptr %15, align 4, !tbaa !36
  %92 = zext i32 %91 to i64
  %93 = getelementptr inbounds nuw %struct.VLCElem, ptr %90, i64 %92
  %94 = getelementptr inbounds nuw %struct.VLCElem, ptr %93, i32 0, i32 0
  %95 = getelementptr inbounds nuw %struct.anon, ptr %94, i32 0, i32 0
  %96 = load i16, ptr %95, align 2, !tbaa !43
  %97 = sext i16 %96 to i32
  store i32 %97, ptr %9, align 4, !tbaa !36
  %98 = load ptr, ptr %6, align 8, !tbaa !144
  %99 = load i32, ptr %15, align 4, !tbaa !36
  %100 = zext i32 %99 to i64
  %101 = getelementptr inbounds nuw %struct.VLCElem, ptr %98, i64 %100
  %102 = getelementptr inbounds nuw %struct.VLCElem, ptr %101, i32 0, i32 0
  %103 = getelementptr inbounds nuw %struct.anon, ptr %102, i32 0, i32 1
  %104 = load i16, ptr %103, align 2, !tbaa !43
  %105 = sext i16 %104 to i32
  store i32 %105, ptr %13, align 4, !tbaa !36
  %106 = load i32, ptr %8, align 4, !tbaa !36
  %107 = icmp sgt i32 %106, 2
  br i1 %107, label %108, label %159

108:                                              ; preds = %70
  %109 = load i32, ptr %13, align 4, !tbaa !36
  %110 = icmp slt i32 %109, 0
  br i1 %110, label %111, label %159

111:                                              ; preds = %108
  %112 = load i32, ptr %12, align 4, !tbaa !36
  %113 = load i32, ptr %10, align 4, !tbaa !36
  %114 = load i32, ptr %14, align 4, !tbaa !36
  %115 = add i32 %113, %114
  %116 = icmp ugt i32 %112, %115
  br i1 %116, label %117, label %121

117:                                              ; preds = %111
  %118 = load i32, ptr %10, align 4, !tbaa !36
  %119 = load i32, ptr %14, align 4, !tbaa !36
  %120 = add i32 %118, %119
  br label %123

121:                                              ; preds = %111
  %122 = load i32, ptr %12, align 4, !tbaa !36
  br label %123

123:                                              ; preds = %121, %117
  %124 = phi i32 [ %120, %117 ], [ %122, %121 ]
  store i32 %124, ptr %10, align 4, !tbaa !36
  %125 = load ptr, ptr %5, align 8, !tbaa !96
  %126 = getelementptr inbounds nuw %struct.GetBitContext, ptr %125, i32 0, i32 0
  %127 = load ptr, ptr %126, align 8, !tbaa !114
  %128 = load i32, ptr %10, align 4, !tbaa !36
  %129 = lshr i32 %128, 3
  %130 = zext i32 %129 to i64
  %131 = getelementptr inbounds nuw i8, ptr %127, i64 %130
  %132 = load i32, ptr %131, align 1, !tbaa !43
  %133 = load i32, ptr %10, align 4, !tbaa !36
  %134 = and i32 %133, 7
  %135 = lshr i32 %132, %134
  store i32 %135, ptr %11, align 4, !tbaa !36
  %136 = load i32, ptr %13, align 4, !tbaa !36
  %137 = sub nsw i32 0, %136
  store i32 %137, ptr %14, align 4, !tbaa !36
  %138 = load i32, ptr %11, align 4, !tbaa !36
  %139 = load i32, ptr %14, align 4, !tbaa !36
  %140 = call i32 @zero_extend(i32 noundef %138, i32 noundef %139) #13
  %141 = load i32, ptr %9, align 4, !tbaa !36
  %142 = add i32 %140, %141
  store i32 %142, ptr %15, align 4, !tbaa !36
  %143 = load ptr, ptr %6, align 8, !tbaa !144
  %144 = load i32, ptr %15, align 4, !tbaa !36
  %145 = zext i32 %144 to i64
  %146 = getelementptr inbounds nuw %struct.VLCElem, ptr %143, i64 %145
  %147 = getelementptr inbounds nuw %struct.VLCElem, ptr %146, i32 0, i32 0
  %148 = getelementptr inbounds nuw %struct.anon, ptr %147, i32 0, i32 0
  %149 = load i16, ptr %148, align 2, !tbaa !43
  %150 = sext i16 %149 to i32
  store i32 %150, ptr %9, align 4, !tbaa !36
  %151 = load ptr, ptr %6, align 8, !tbaa !144
  %152 = load i32, ptr %15, align 4, !tbaa !36
  %153 = zext i32 %152 to i64
  %154 = getelementptr inbounds nuw %struct.VLCElem, ptr %151, i64 %153
  %155 = getelementptr inbounds nuw %struct.VLCElem, ptr %154, i32 0, i32 0
  %156 = getelementptr inbounds nuw %struct.anon, ptr %155, i32 0, i32 1
  %157 = load i16, ptr %156, align 2, !tbaa !43
  %158 = sext i16 %157 to i32
  store i32 %158, ptr %13, align 4, !tbaa !36
  br label %159

159:                                              ; preds = %123, %108, %70
  br label %160

160:                                              ; preds = %159, %55, %33
  br label %161

161:                                              ; preds = %160
  %162 = load i32, ptr %13, align 4, !tbaa !36
  %163 = load i32, ptr %11, align 4, !tbaa !36
  %164 = lshr i32 %163, %162
  store i32 %164, ptr %11, align 4, !tbaa !36
  %165 = load i32, ptr %12, align 4, !tbaa !36
  %166 = load i32, ptr %10, align 4, !tbaa !36
  %167 = load i32, ptr %13, align 4, !tbaa !36
  %168 = add i32 %166, %167
  %169 = icmp ugt i32 %165, %168
  br i1 %169, label %170, label %174

170:                                              ; preds = %161
  %171 = load i32, ptr %10, align 4, !tbaa !36
  %172 = load i32, ptr %13, align 4, !tbaa !36
  %173 = add i32 %171, %172
  br label %176

174:                                              ; preds = %161
  %175 = load i32, ptr %12, align 4, !tbaa !36
  br label %176

176:                                              ; preds = %174, %170
  %177 = phi i32 [ %173, %170 ], [ %175, %174 ]
  store i32 %177, ptr %10, align 4, !tbaa !36
  br label %178

178:                                              ; preds = %176
  br label %179

179:                                              ; preds = %178
  call void @llvm.lifetime.end.p0(i64 4, ptr %15) #12
  call void @llvm.lifetime.end.p0(i64 4, ptr %14) #12
  call void @llvm.lifetime.end.p0(i64 4, ptr %13) #12
  br label %180

180:                                              ; preds = %179
  br label %181

181:                                              ; preds = %180
  %182 = load i32, ptr %10, align 4, !tbaa !36
  %183 = load ptr, ptr %5, align 8, !tbaa !96
  %184 = getelementptr inbounds nuw %struct.GetBitContext, ptr %183, i32 0, i32 2
  store i32 %182, ptr %184, align 8, !tbaa !119
  %185 = load i32, ptr %9, align 4, !tbaa !36
  call void @llvm.lifetime.end.p0(i64 4, ptr %12) #12
  call void @llvm.lifetime.end.p0(i64 4, ptr %11) #12
  call void @llvm.lifetime.end.p0(i64 4, ptr %10) #12
  call void @llvm.lifetime.end.p0(i64 4, ptr %9) #12
  ret i32 %185
}

; Function Attrs: inlinehint nounwind uwtable
define internal i32 @get_bits_left(ptr noundef %0) #10 {
  %2 = alloca ptr, align 8
  store ptr %0, ptr %2, align 8, !tbaa !96
  %3 = load ptr, ptr %2, align 8, !tbaa !96
  %4 = getelementptr inbounds nuw %struct.GetBitContext, ptr %3, i32 0, i32 3
  %5 = load i32, ptr %4, align 4, !tbaa !116
  %6 = load ptr, ptr %2, align 8, !tbaa !96
  %7 = call i32 @get_bits_count(ptr noundef %6)
  %8 = sub nsw i32 %5, %7
  ret i32 %8
}

; Function Attrs: nounwind uwtable
define internal i32 @qdmc_get_vlc(ptr noundef %0, ptr noundef %1, i32 noundef %2) #1 {
  %4 = alloca i32, align 4
  %5 = alloca ptr, align 8
  %6 = alloca ptr, align 8
  %7 = alloca i32, align 4
  %8 = alloca i32, align 4
  %9 = alloca i32, align 4
  store ptr %0, ptr %5, align 8, !tbaa !96
  store ptr %1, ptr %6, align 8, !tbaa !141
  store i32 %2, ptr %7, align 4, !tbaa !36
  call void @llvm.lifetime.start.p0(i64 4, ptr %8) #12
  %10 = load ptr, ptr %5, align 8, !tbaa !96
  %11 = call i32 @get_bits_left(ptr noundef %10)
  %12 = icmp slt i32 %11, 1
  br i1 %12, label %13, label %14

13:                                               ; preds = %3
  store i32 -1094995529, ptr %4, align 4
  store i32 1, ptr %9, align 4
  br label %51

14:                                               ; preds = %3
  %15 = load ptr, ptr %5, align 8, !tbaa !96
  %16 = load ptr, ptr %6, align 8, !tbaa !141
  %17 = getelementptr inbounds nuw %struct.VLC, ptr %16, i32 0, i32 1
  %18 = load ptr, ptr %17, align 8, !tbaa !75
  %19 = load ptr, ptr %6, align 8, !tbaa !141
  %20 = getelementptr inbounds nuw %struct.VLC, ptr %19, i32 0, i32 0
  %21 = load i32, ptr %20, align 8, !tbaa !143
  %22 = call i32 @get_vlc2(ptr noundef %15, ptr noundef %18, i32 noundef %21, i32 noundef 2)
  store i32 %22, ptr %8, align 4, !tbaa !36
  %23 = load i32, ptr %8, align 4, !tbaa !36
  %24 = icmp slt i32 %23, 0
  br i1 %24, label %25, label %31

25:                                               ; preds = %14
  %26 = load ptr, ptr %5, align 8, !tbaa !96
  %27 = load ptr, ptr %5, align 8, !tbaa !96
  %28 = call i32 @get_bits(ptr noundef %27, i32 noundef 3)
  %29 = add i32 %28, 1
  %30 = call i32 @get_bits(ptr noundef %26, i32 noundef %29)
  store i32 %30, ptr %8, align 4, !tbaa !36
  br label %31

31:                                               ; preds = %25, %14
  %32 = load i32, ptr %7, align 4, !tbaa !36
  %33 = icmp ne i32 %32, 0
  br i1 %33, label %34, label %49

34:                                               ; preds = %31
  %35 = load i32, ptr %8, align 4, !tbaa !36
  %36 = sext i32 %35 to i64
  %37 = icmp uge i64 %36, 65
  br i1 %37, label %38, label %39

38:                                               ; preds = %34
  store i32 -1094995529, ptr %4, align 4
  store i32 1, ptr %9, align 4
  br label %51

39:                                               ; preds = %34
  %40 = load i32, ptr %8, align 4, !tbaa !36
  %41 = sext i32 %40 to i64
  %42 = getelementptr inbounds [65 x i32], ptr @code_prefix, i64 0, i64 %41
  %43 = load i32, ptr %42, align 4, !tbaa !36
  %44 = load ptr, ptr %5, align 8, !tbaa !96
  %45 = load i32, ptr %8, align 4, !tbaa !36
  %46 = ashr i32 %45, 2
  %47 = call i32 @get_bitsz(ptr noundef %44, i32 noundef %46)
  %48 = add i32 %43, %47
  store i32 %48, ptr %8, align 4, !tbaa !36
  br label %49

49:                                               ; preds = %39, %31
  %50 = load i32, ptr %8, align 4, !tbaa !36
  store i32 %50, ptr %4, align 4
  store i32 1, ptr %9, align 4
  br label %51

51:                                               ; preds = %49, %38, %13
  call void @llvm.lifetime.end.p0(i64 4, ptr %8) #12
  %52 = load i32, ptr %4, align 4
  ret i32 %52
}