; Function Attrs: mustprogress nofree norecurse nosync nounwind willreturn memory(read, argmem: readwrite, inaccessiblemem: none) uwtable
define internal fastcc i32 @qdmc_get_vlc(ptr noundef nonnull captures(none) %0, i32 %.0.val, ptr readonly captures(none) %.8.val, i32 noundef range(i32 0, 2) %1) unnamed_addr #9 {
  %3 = getelementptr i8, ptr %0, i64 16
  %.val = load i32, ptr %3, align 8, !tbaa !65
  %4 = getelementptr i8, ptr %0, i64 20
  %.val16 = load i32, ptr %4, align 4, !tbaa !61
  %.not1 = icmp sgt i32 %.val16, %.val
  br i1 %.not1, label %5, label %94

5:                                                ; preds = %2
  %6 = getelementptr inbounds nuw i8, ptr %0, i64 24
  %7 = load i32, ptr %6, align 8, !tbaa !62
  %8 = load ptr, ptr %0, align 8, !tbaa !59
  %9 = lshr i32 %.val, 3
  %10 = zext nneg i32 %9 to i64
  %11 = getelementptr inbounds nuw i8, ptr %8, i64 %10
  %12 = load i32, ptr %11, align 1, !tbaa !30
  %13 = and i32 %.val, 7
  %14 = lshr i32 %12, %13
  %15 = sub i32 32, %.0.val
  %16 = lshr i32 -1, %15
  %17 = and i32 %14, %16
  %18 = zext i32 %17 to i64
  %19 = getelementptr inbounds nuw %struct.VLCElem, ptr %.8.val, i64 %18
  %20 = load i16, ptr %19, align 2, !tbaa !30
  %21 = sext i16 %20 to i32
  %22 = getelementptr inbounds nuw i8, ptr %19, i64 2
  %23 = load i16, ptr %22, align 2, !tbaa !30
  %24 = sext i16 %23 to i32
  %25 = icmp slt i16 %23, 0
  br i1 %25, label %26, label %get_vlc2.exit

26:                                               ; preds = %5
  %27 = add i32 %.val, %.0.val
  %28 = tail call i32 @llvm.umin.i32(i32 %7, i32 %27)
  %29 = lshr i32 %28, 3
  %30 = zext nneg i32 %29 to i64
  %31 = getelementptr inbounds nuw i8, ptr %8, i64 %30
  %32 = load i32, ptr %31, align 1, !tbaa !30
  %33 = and i32 %28, 7
  %34 = lshr i32 %32, %33
  %35 = add nsw i32 %24, 32
  %36 = lshr i32 -1, %35
  %37 = and i32 %34, %36
  %38 = add i32 %37, %21
  %39 = zext i32 %38 to i64
  %40 = getelementptr inbounds nuw %struct.VLCElem, ptr %.8.val, i64 %39
  %41 = load i16, ptr %40, align 2, !tbaa !30
  %42 = sext i16 %41 to i32
  %43 = getelementptr inbounds nuw i8, ptr %40, i64 2
  %44 = load i16, ptr %43, align 2, !tbaa !30
  %45 = sext i16 %44 to i32
  br label %get_vlc2.exit

get_vlc2.exit:                                    ; preds = %5, %26
  %.064.i = phi i32 [ %28, %26 ], [ %.val, %5 ]
  %.062.i = phi i32 [ %42, %26 ], [ %21, %5 ]
  %.0.i = phi i32 [ %45, %26 ], [ %24, %5 ]
  %46 = add i32 %.0.i, %.064.i
  %47 = tail call i32 @llvm.umin.i32(i32 %7, i32 %46)
  store i32 %47, ptr %3, align 8, !tbaa !65
  %48 = icmp slt i32 %.062.i, 0
  br i1 %48, label %49, label %71

49:                                               ; preds = %get_vlc2.exit
  %50 = lshr i32 %47, 3
  %51 = zext nneg i32 %50 to i64
  %52 = getelementptr inbounds nuw i8, ptr %8, i64 %51
  %53 = load i32, ptr %52, align 1, !tbaa !30
  %54 = and i32 %47, 7
  %55 = lshr i32 %53, %54
  %56 = and i32 %55, 7
  %57 = add i32 %47, 3
  %58 = tail call i32 @llvm.umin.i32(i32 %7, i32 %57)
  store i32 %58, ptr %3, align 8, !tbaa !65
  %59 = lshr i32 %58, 3
  %60 = zext nneg i32 %59 to i64
  %61 = getelementptr inbounds nuw i8, ptr %8, i64 %60
  %62 = load i32, ptr %61, align 1, !tbaa !30
  %63 = and i32 %58, 7
  %64 = lshr i32 %62, %63
  %65 = xor i32 %56, 31
  %66 = lshr i32 -1, %65
  %67 = and i32 %66, %64
  %68 = add i32 %58, 1
  %69 = add i32 %68, %56
  %70 = tail call i32 @llvm.umin.i32(i32 %7, i32 %69)
  store i32 %70, ptr %3, align 8, !tbaa !65
  br label %71

71:                                               ; preds = %49, %get_vlc2.exit
  %72 = phi i32 [ %70, %49 ], [ %47, %get_vlc2.exit ]
  %.0 = phi i32 [ %67, %49 ], [ %.062.i, %get_vlc2.exit ]
  %.not = icmp eq i32 %1, 0
  br i1 %.not, label %94, label %73

73:                                               ; preds = %71
  %74 = icmp samesign ugt i32 %.0, 64
  br i1 %74, label %94, label %75

75:                                               ; preds = %73
  %76 = zext nneg i32 %.0 to i64
  %77 = getelementptr inbounds nuw [65 x i32], ptr @code_prefix, i64 0, i64 %76
  %78 = load i32, ptr %77, align 4, !tbaa !38
  %.not.i = icmp samesign ult i32 %.0, 4
  br i1 %.not.i, label %get_bitsz.exit, label %79

79:                                               ; preds = %75
  %80 = lshr i32 %.0, 2
  %81 = lshr i32 %72, 3
  %82 = zext nneg i32 %81 to i64
  %83 = getelementptr inbounds nuw i8, ptr %8, i64 %82
  %84 = load i32, ptr %83, align 1, !tbaa !30
  %85 = and i32 %72, 7
  %86 = lshr i32 %84, %85
  %87 = sub nuw nsw i32 32, %80
  %88 = lshr i32 -1, %87
  %89 = and i32 %86, %88
  %90 = add i32 %72, %80
  %91 = tail call i32 @llvm.umin.i32(i32 %7, i32 %90)
  store i32 %91, ptr %3, align 8, !tbaa !65
  br label %get_bitsz.exit

get_bitsz.exit:                                   ; preds = %75, %79
  %92 = phi i32 [ %89, %79 ], [ 0, %75 ]
  %93 = add i32 %92, %78
  br label %94

94:                                               ; preds = %71, %get_bitsz.exit, %73, %2
  %.013 = phi i32 [ -1094995529, %2 ], [ -1094995529, %73 ], [ %93, %get_bitsz.exit ], [ %.0, %71 ]
  ret i32 %.013
}